target datalayout = "e-m:e-p270:32:32-p271:32:32-p272:64:64-i64:64-i128:128-f80:128-n8:16:32:64-S128"
target triple = "x86_64-pc-linux-gnu"

@.str.8 = private unnamed_addr constant [121 x i8] c"generated/home/dtcxzyw/WorkSpace/Projects/compilers/llvm-opt-benchmark/bench/gromacs/gromacs/src/gromacs/pbcutil/pbc.cpp\00", align 1
@_ZZ22compact_unitcell_edgesvE6hexcon = internal constant [24 x i32] [i32 0, i32 9, i32 1, i32 19, i32 2, i32 15, i32 3, i32 21, i32 4, i32 17, i32 5, i32 11, i32 6, i32 23, i32 7, i32 13, i32 8, i32 20, i32 10, i32 18, i32 12, i32 16, i32 14, i32 22], align 16
@.str.49 = private unnamed_addr constant [5 x i8] c"edge\00", align 1

; Function Attrs: inlinehint mustprogress uwtable
define internal void @_ZL13gmx_snew_implIiEvPKcS1_iRPT_m(ptr noundef %0, ptr noundef %1, i32 noundef %2, ptr noundef nonnull align 8 dereferenceable(8) %3, i64 noundef %4) #8 {
  %6 = alloca ptr, align 8
  %7 = alloca ptr, align 8
  %8 = alloca i32, align 4
  %9 = alloca ptr, align 8
  %10 = alloca i64, align 8
  store ptr %0, ptr %6, align 8, !tbaa !11
  store ptr %1, ptr %7, align 8, !tbaa !11
  store i32 %2, ptr %8, align 4, !tbaa !36
  store ptr %3, ptr %9, align 8, !tbaa !203
  store i64 %4, ptr %10, align 8, !tbaa !21
  %11 = load ptr, ptr %6, align 8, !tbaa !11
  %12 = load ptr, ptr %7, align 8, !tbaa !11
  %13 = load i32, ptr %8, align 4, !tbaa !36
  %14 = load i64, ptr %10, align 8, !tbaa !21
  %15 = call noundef ptr @_Z11save_callocPKcS0_imm(ptr noundef %11, ptr noundef %12, i32 noundef %13, i64 noundef %14, i64 noundef 4)
  %16 = load ptr, ptr %9, align 8, !tbaa !203
  store ptr %15, ptr %16, align 8, !tbaa !92
  ret void
}

; Function Attrs: mustprogress uwtable
define noundef ptr @_Z22compact_unitcell_edgesv() #3 {
  %1 = alloca ptr, align 8
  %2 = alloca i32, align 4
  %3 = alloca i32, align 4
  %4 = alloca i32, align 4
  call void @llvm.lifetime.start.p0(i64 8, ptr %1) #5
  call void @llvm.lifetime.start.p0(i64 4, ptr %2) #5
  call void @llvm.lifetime.start.p0(i64 4, ptr %3) #5
  call void @llvm.lifetime.start.p0(i64 4, ptr %4) #5
  call void @_ZL13gmx_snew_implIiEvPKcS1_iRPT_m(ptr noundef @.str.49, ptr noundef @.str.8, i32 noundef 1413, ptr noundef nonnull align 8 dereferenceable(8) %1, i64 noundef 72)
  store i32 0, ptr %2, align 4, !tbaa !36
  store i32 0, ptr %3, align 4, !tbaa !36
  br label %5

5:                                                ; preds = %37, %0
  %6 = load i32, ptr %3, align 4, !tbaa !36
  %7 = icmp slt i32 %6, 6
  br i1 %7, label %8, label %40

8:                                                ; preds = %5
  store i32 0, ptr %4, align 4, !tbaa !36
  br label %9

9:                                                ; preds = %33, %8
  %10 = load i32, ptr %4, align 4, !tbaa !36
  %11 = icmp slt i32 %10, 4
  br i1 %11, label %12, label %36

12:                                               ; preds = %9
  %13 = load i32, ptr %3, align 4, !tbaa !36
  %14 = mul nsw i32 4, %13
  %15 = load i32, ptr %4, align 4, !tbaa !36
  %16 = add nsw i32 %14, %15
  %17 = load ptr, ptr %1, align 8, !tbaa !92
  %18 = load i32, ptr %2, align 4, !tbaa !36
  %19 = add nsw i32 %18, 1
  store i32 %19, ptr %2, align 4, !tbaa !36
  %20 = sext i32 %18 to i64
  %21 = getelementptr inbounds i32, ptr %17, i64 %20
  store i32 %16, ptr %21, align 4, !tbaa !36
  %22 = load i32, ptr %3, align 4, !tbaa !36
  %23 = mul nsw i32 4, %22
  %24 = load i32, ptr %4, align 4, !tbaa !36
  %25 = add nsw i32 %24, 1
  %26 = srem i32 %25, 4
  %27 = add nsw i32 %23, %26
  %28 = load ptr, ptr %1, align 8, !tbaa !92
  %29 = load i32, ptr %2, align 4, !tbaa !36
  %30 = add nsw i32 %29, 1
  store i32 %30, ptr %2, align 4, !tbaa !36
  %31 = sext i32 %29 to i64
  %32 = getelementptr inbounds i32, ptr %28, i64 %31
  store i32 %27, ptr %32, align 4, !tbaa !36
  br label %33

33:                                               ; preds = %12
  %34 = load i32, ptr %4, align 4, !tbaa !36
  %35 = add nsw i32 %34, 1
  store i32 %35, ptr %4, align 4, !tbaa !36
  br label %9, !llvm.loop !200

36:                                               ; preds = %9
  br label %37

37:                                               ; preds = %36
  %38 = load i32, ptr %3, align 4, !tbaa !36
  %39 = add nsw i32 %38, 1
  store i32 %39, ptr %3, align 4, !tbaa !36
  br label %5, !llvm.loop !201

40:                                               ; preds = %5
  store i32 0, ptr %3, align 4, !tbaa !36
  br label %41

41:                                               ; preds = %54, %40
  %42 = load i32, ptr %3, align 4, !tbaa !36
  %43 = icmp slt i32 %42, 24
  br i1 %43, label %44, label %57

44:                                               ; preds = %41
  %45 = load i32, ptr %3, align 4, !tbaa !36
  %46 = sext i32 %45 to i64
  %47 = getelementptr inbounds [24 x i32], ptr @_ZZ22compact_unitcell_edgesvE6hexcon, i64 0, i64 %46
  %48 = load i32, ptr %47, align 4, !tbaa !36
  %49 = load ptr, ptr %1, align 8, !tbaa !92
  %50 = load i32, ptr %2, align 4, !tbaa !36
  %51 = add nsw i32 %50, 1
  store i32 %51, ptr %2, align 4, !tbaa !36
  %52 = sext i32 %50 to i64
  %53 = getelementptr inbounds i32, ptr %49, i64 %52
  store i32 %48, ptr %53, align 4, !tbaa !36
  br label %54

54:                                               ; preds = %44
  %55 = load i32, ptr %3, align 4, !tbaa !36
  %56 = add nsw i32 %55, 1
  store i32 %56, ptr %3, align 4, !tbaa !36
  br label %41, !llvm.loop !202

57:                                               ; preds = %41
  %58 = load ptr, ptr %1, align 8, !tbaa !92
  call void @llvm.lifetime.end.p0(i64 4, ptr %4) #5
  call void @llvm.lifetime.end.p0(i64 4, ptr %3) #5
  call void @llvm.lifetime.end.p0(i64 4, ptr %2) #5
  call void @llvm.lifetime.end.p0(i64 8, ptr %1) #5
  ret ptr %58
}