; Function Attrs: mustprogress uwtable
define noundef ptr @_Z22compact_unitcell_edgesv() local_unnamed_addr #1 {
  %1 = tail call noundef ptr @_Z11save_callocPKcS0_imm(ptr noundef nonnull @.str.49, ptr noundef nonnull @.str.8, i32 noundef 1413, i64 noundef 72, i64 noundef 4)
  br label %.preheader20

.preheader20:                                     ; preds = %0, %11
  %.01424 = phi i32 [ 0, %0 ], [ %12, %11 ]
  %.01523 = phi i64 [ 0, %0 ], [ %indvars.iv.next, %11 ]
  %2 = shl nuw nsw i32 %.01424, 2
  %sext = shl i64 %.01523, 32
  %3 = ashr exact i64 %sext, 32
  br label %4

4:                                                ; preds = %.preheader20, %4
  %indvars.iv = phi i64 [ %3, %.preheader20 ], [ %indvars.iv.next, %4 ]
  %.022 = phi i32 [ 0, %.preheader20 ], [ %7, %4 ]
  %5 = or disjoint i32 %.022, %2
  %6 = getelementptr inbounds i32, ptr %1, i64 %indvars.iv
  store i32 %5, ptr %6, align 4, !tbaa !26
  %7 = add nuw nsw i32 %.022, 1
  %8 = and i32 %7, 3
  %9 = or disjoint i32 %8, %2
  %indvars.iv.next = add nsw i64 %indvars.iv, 2
  %10 = getelementptr i8, ptr %6, i64 4
  store i32 %9, ptr %10, align 4, !tbaa !26
  %exitcond.not = icmp eq i32 %7, 4
  br i1 %exitcond.not, label %11, label %4, !llvm.loop !118

11:                                               ; preds = %4
  %12 = add nuw nsw i32 %.01424, 1
  %exitcond28.not = icmp eq i32 %12, 6
  br i1 %exitcond28.not, label %.preheader.preheader, label %.preheader20, !llvm.loop !119

.preheader.preheader:                             ; preds = %11
  %sext38 = shl i64 %indvars.iv.next, 32
  %13 = ashr exact i64 %sext38, 30
  %scevgep = getelementptr i8, ptr %1, i64 %13
  tail call void @llvm.memcpy.p0.p0.i64(ptr noundef nonnull align 4 dereferenceable(96) %scevgep, ptr noundef nonnull align 16 dereferenceable(96) @_ZZ22compact_unitcell_edgesvE6hexcon, i64 96, i1 false), !tbaa !26
  ret ptr %1
}